target datalayout = "e-m:e-p270:32:32-p271:32:32-p272:64:64-i64:64-i128:128-f80:128-n8:16:32:64-S128"
target triple = "x86_64-pc-linux-gnu"

%struct.H5R_ref_priv_t = type { %union.anon, i64, i32, i8, i8, i8 }
%union.anon = type { %struct.H5R_ref_priv_reg_t }
%struct.H5R_ref_priv_reg_t = type { %struct.H5R_ref_priv_obj_t, ptr }
%struct.H5R_ref_priv_obj_t = type { %struct.H5O_token_t, ptr }
%struct.H5O_token_t = type { [16 x i8] }
%struct.H5R_ref_priv_attr_t = type { %struct.H5R_ref_priv_obj_t, ptr }

@H5R_init_g = global i8 0, align 1
@H5_libterm_g = external global i8, align 1
@.str = private unnamed_addr constant [100 x i8] c"generated/home/dtcxzyw/WorkSpace/Projects/compilers/llvm-opt-benchmark/bench/hdf5/hdf5/src/H5Rint.c\00", align 1
@H5E_REFERENCE_g = external global i64, align 8
@H5E_CANTCOPY_g = external global i64, align 8
@.str.3 = private unnamed_addr constant [25 x i8] c"unable to copy dataspace\00", align 1
@.str.5 = private unnamed_addr constant [27 x i8] c"Cannot copy attribute name\00", align 1
@H5E_UNSUPPORTED_g = external global i64, align 8
@.str.7 = private unnamed_addr constant [40 x i8] c"internal error (invalid reference type)\00", align 1
@.str.8 = private unnamed_addr constant [40 x i8] c"internal error (unknown reference type)\00", align 1
@H5E_CANTINC_g = external global i64, align 8
@.str.10 = private unnamed_addr constant [32 x i8] c"incrementing location ID failed\00", align 1
@__func__.H5R__copy = private unnamed_addr constant [10 x i8] c"H5R__copy\00", align 1
@.str.23 = private unnamed_addr constant [21 x i8] c"Cannot copy filename\00", align 1

; Function Attrs: nounwind uwtable
define i32 @H5R__copy(ptr noundef %0, ptr noundef %1) #0 {
  %3 = alloca ptr, align 8
  %4 = alloca ptr, align 8
  %5 = alloca i32, align 4
  %6 = alloca i8, align 1
  store ptr %0, ptr %3, align 8, !tbaa !14
  store ptr %1, ptr %4, align 8, !tbaa !14
  call void @llvm.lifetime.start.p0(i64 4, ptr %5) #9
  store i32 0, ptr %5, align 4, !tbaa !16
  call void @llvm.lifetime.start.p0(i64 1, ptr %6) #9
  store i8 0, ptr %6, align 1, !tbaa !3
  %7 = load i8, ptr @H5R_init_g, align 1, !tbaa !3, !range !7, !noundef !8
  %8 = trunc i8 %7 to i1
  br i1 %8, label %13, label %9

9:                                                ; preds = %2
  %10 = load i8, ptr @H5_libterm_g, align 1, !tbaa !3, !range !7, !noundef !8
  %11 = trunc i8 %10 to i1
  %12 = xor i1 %11, true
  br label %13

13:                                               ; preds = %9, %2
  %14 = phi i1 [ true, %2 ], [ %12, %9 ]
  %15 = xor i1 %14, true
  %16 = xor i1 %15, true
  %17 = zext i1 %16 to i32
  %18 = sext i32 %17 to i64
  %19 = call i64 @llvm.expect.i64(i64 %18, i64 1)
  %20 = icmp ne i64 %19, 0
  br i1 %20, label %21, label %221

21:                                               ; preds = %13
  %22 = load ptr, ptr %4, align 8, !tbaa !14
  %23 = getelementptr inbounds nuw %struct.H5R_ref_priv_t, ptr %22, i32 0, i32 0
  %24 = getelementptr inbounds nuw %struct.H5R_ref_priv_obj_t, ptr %23, i32 0, i32 0
  %25 = load ptr, ptr %3, align 8, !tbaa !14
  %26 = getelementptr inbounds nuw %struct.H5R_ref_priv_t, ptr %25, i32 0, i32 0
  %27 = getelementptr inbounds nuw %struct.H5R_ref_priv_obj_t, ptr %26, i32 0, i32 0
  call void @llvm.memcpy.p0.p0.i64(ptr align 8 %24, ptr align 8 %27, i64 16, i1 false)
  %28 = load ptr, ptr %3, align 8, !tbaa !14
  %29 = getelementptr inbounds nuw %struct.H5R_ref_priv_t, ptr %28, i32 0, i32 2
  %30 = load i32, ptr %29, align 8, !tbaa !22
  %31 = load ptr, ptr %4, align 8, !tbaa !14
  %32 = getelementptr inbounds nuw %struct.H5R_ref_priv_t, ptr %31, i32 0, i32 2
  store i32 %30, ptr %32, align 8, !tbaa !22
  %33 = load ptr, ptr %3, align 8, !tbaa !14
  %34 = getelementptr inbounds nuw %struct.H5R_ref_priv_t, ptr %33, i32 0, i32 3
  %35 = load i8, ptr %34, align 4, !tbaa !21
  %36 = load ptr, ptr %4, align 8, !tbaa !14
  %37 = getelementptr inbounds nuw %struct.H5R_ref_priv_t, ptr %36, i32 0, i32 3
  store i8 %35, ptr %37, align 4, !tbaa !21
  %38 = load ptr, ptr %3, align 8, !tbaa !14
  %39 = getelementptr inbounds nuw %struct.H5R_ref_priv_t, ptr %38, i32 0, i32 4
  %40 = load i8, ptr %39, align 1, !tbaa !23
  %41 = load ptr, ptr %4, align 8, !tbaa !14
  %42 = getelementptr inbounds nuw %struct.H5R_ref_priv_t, ptr %41, i32 0, i32 4
  store i8 %40, ptr %42, align 1, !tbaa !23
  %43 = load ptr, ptr %3, align 8, !tbaa !14
  %44 = getelementptr inbounds nuw %struct.H5R_ref_priv_t, ptr %43, i32 0, i32 3
  %45 = load i8, ptr %44, align 4, !tbaa !21
  %46 = sext i8 %45 to i32
  switch i32 %46, label %127 [
    i32 2, label %146
    i32 3, label %47
    i32 4, label %77
    i32 0, label %107
    i32 1, label %107
    i32 -1, label %126
    i32 5, label %126
  ]

47:                                               ; preds = %21
  %48 = load ptr, ptr %3, align 8, !tbaa !14
  %49 = getelementptr inbounds nuw %struct.H5R_ref_priv_t, ptr %48, i32 0, i32 0
  %50 = getelementptr inbounds nuw %struct.H5R_ref_priv_reg_t, ptr %49, i32 0, i32 1
  %51 = load ptr, ptr %50, align 8, !tbaa !18
  %52 = call ptr @H5S_copy(ptr noundef %51, i1 noundef zeroext false, i1 noundef zeroext true)
  %53 = load ptr, ptr %4, align 8, !tbaa !14
  %54 = getelementptr inbounds nuw %struct.H5R_ref_priv_t, ptr %53, i32 0, i32 0
  %55 = getelementptr inbounds nuw %struct.H5R_ref_priv_reg_t, ptr %54, i32 0, i32 1
  store ptr %52, ptr %55, align 8, !tbaa !18
  %56 = icmp eq ptr null, %52
  br i1 %56, label %57, label %76

57:                                               ; preds = %47
  br label %58

58:                                               ; preds = %57
  br label %59

59:                                               ; preds = %58
  br label %60

60:                                               ; preds = %59
  %61 = load i64, ptr @H5E_REFERENCE_g, align 8, !tbaa !12
  %62 = load i64, ptr @H5E_CANTCOPY_g, align 8, !tbaa !12
  %63 = call i32 (ptr, ptr, i32, i64, i64, ptr, ...) @H5E_printf_stack(ptr noundef @.str, ptr noundef @__func__.H5R__copy, i32 noundef 641, i64 noundef %61, i64 noundef %62, ptr noundef @.str.3)
  br label %64

64:                                               ; preds = %60
  br label %65

65:                                               ; preds = %64
  store i8 1, ptr %6, align 1, !tbaa !3
  %66 = load i8, ptr %6, align 1, !tbaa !3, !range !7, !noundef !8
  %67 = trunc i8 %66 to i1
  %68 = zext i1 %67 to i8
  store i8 %68, ptr %6, align 1, !tbaa !3
  br label %69

69:                                               ; preds = %65
  br label %70

70:                                               ; preds = %69
  br label %71

71:                                               ; preds = %70
  store i32 -1, ptr %5, align 4, !tbaa !16
  br label %220

72:                                               ; No predecessors!
  br label %73

73:                                               ; preds = %72
  br label %74

74:                                               ; preds = %73
  br label %75

75:                                               ; preds = %74
  br label %76

76:                                               ; preds = %75, %47
  br label %146

77:                                               ; preds = %21
  %78 = load ptr, ptr %3, align 8, !tbaa !14
  %79 = getelementptr inbounds nuw %struct.H5R_ref_priv_t, ptr %78, i32 0, i32 0
  %80 = getelementptr inbounds nuw %struct.H5R_ref_priv_attr_t, ptr %79, i32 0, i32 1
  %81 = load ptr, ptr %80, align 8, !tbaa !18
  %82 = call noalias ptr @strdup(ptr noundef %81) #9
  %83 = load ptr, ptr %4, align 8, !tbaa !14
  %84 = getelementptr inbounds nuw %struct.H5R_ref_priv_t, ptr %83, i32 0, i32 0
  %85 = getelementptr inbounds nuw %struct.H5R_ref_priv_attr_t, ptr %84, i32 0, i32 1
  store ptr %82, ptr %85, align 8, !tbaa !18
  %86 = icmp eq ptr null, %82
  br i1 %86, label %87, label %106

87:                                               ; preds = %77
  br label %88

88:                                               ; preds = %87
  br label %89

89:                                               ; preds = %88
  br label %90

90:                                               ; preds = %89
  %91 = load i64, ptr @H5E_REFERENCE_g, align 8, !tbaa !12
  %92 = load i64, ptr @H5E_CANTCOPY_g, align 8, !tbaa !12
  %93 = call i32 (ptr, ptr, i32, i64, i64, ptr, ...) @H5E_printf_stack(ptr noundef @.str, ptr noundef @__func__.H5R__copy, i32 noundef 645, i64 noundef %91, i64 noundef %92, ptr noundef @.str.5)
  br label %94

94:                                               ; preds = %90
  br label %95

95:                                               ; preds = %94
  store i8 1, ptr %6, align 1, !tbaa !3
  %96 = load i8, ptr %6, align 1, !tbaa !3, !range !7, !noundef !8
  %97 = trunc i8 %96 to i1
  %98 = zext i1 %97 to i8
  store i8 %98, ptr %6, align 1, !tbaa !3
  br label %99

99:                                               ; preds = %95
  br label %100

100:                                              ; preds = %99
  br label %101

101:                                              ; preds = %100
  store i32 -1, ptr %5, align 4, !tbaa !16
  br label %220

102:                                              ; No predecessors!
  br label %103

103:                                              ; preds = %102
  br label %104

104:                                              ; preds = %103
  br label %105

105:                                              ; preds = %104
  br label %106

106:                                              ; preds = %105, %77
  br label %146

107:                                              ; preds = %21, %21
  br label %108

108:                                              ; preds = %107
  br label %109

109:                                              ; preds = %108
  br label %110

110:                                              ; preds = %109
  %111 = load i64, ptr @H5E_REFERENCE_g, align 8, !tbaa !12
  %112 = load i64, ptr @H5E_UNSUPPORTED_g, align 8, !tbaa !12
  %113 = call i32 (ptr, ptr, i32, i64, i64, ptr, ...) @H5E_printf_stack(ptr noundef @.str, ptr noundef @__func__.H5R__copy, i32 noundef 650, i64 noundef %111, i64 noundef %112, ptr noundef @.str.7)
  br label %114

114:                                              ; preds = %110
  br label %115

115:                                              ; preds = %114
  store i8 1, ptr %6, align 1, !tbaa !3
  %116 = load i8, ptr %6, align 1, !tbaa !3, !range !7, !noundef !8
  %117 = trunc i8 %116 to i1
  %118 = zext i1 %117 to i8
  store i8 %118, ptr %6, align 1, !tbaa !3
  br label %119

119:                                              ; preds = %115
  br label %120

120:                                              ; preds = %119
  br label %121

121:                                              ; preds = %120
  store i32 -1, ptr %5, align 4, !tbaa !16
  br label %220

122:                                              ; No predecessors!
  br label %123

123:                                              ; preds = %122
  br label %124

124:                                              ; preds = %123
  br label %125

125:                                              ; preds = %124
  br label %126

126:                                              ; preds = %21, %21, %125
  br label %127

127:                                              ; preds = %21, %126
  br label %128

128:                                              ; preds = %127
  br label %129

129:                                              ; preds = %128
  br label %130

130:                                              ; preds = %129
  %131 = load i64, ptr @H5E_REFERENCE_g, align 8, !tbaa !12
  %132 = load i64, ptr @H5E_UNSUPPORTED_g, align 8, !tbaa !12
  %133 = call i32 (ptr, ptr, i32, i64, i64, ptr, ...) @H5E_printf_stack(ptr noundef @.str, ptr noundef @__func__.H5R__copy, i32 noundef 655, i64 noundef %131, i64 noundef %132, ptr noundef @.str.8)
  br label %134

134:                                              ; preds = %130
  br label %135

135:                                              ; preds = %134
  store i8 1, ptr %6, align 1, !tbaa !3
  %136 = load i8, ptr %6, align 1, !tbaa !3, !range !7, !noundef !8
  %137 = trunc i8 %136 to i1
  %138 = zext i1 %137 to i8
  store i8 %138, ptr %6, align 1, !tbaa !3
  br label %139

139:                                              ; preds = %135
  br label %140

140:                                              ; preds = %139
  br label %141

141:                                              ; preds = %140
  store i32 -1, ptr %5, align 4, !tbaa !16
  br label %220

142:                                              ; No predecessors!
  br label %143

143:                                              ; preds = %142
  br label %144

144:                                              ; preds = %143
  br label %145

145:                                              ; preds = %144
  br label %146

146:                                              ; preds = %145, %106, %76, %21
  %147 = load ptr, ptr %3, align 8, !tbaa !14
  %148 = getelementptr inbounds nuw %struct.H5R_ref_priv_t, ptr %147, i32 0, i32 1
  %149 = load i64, ptr %148, align 8, !tbaa !19
  %150 = icmp eq i64 %149, -1
  br i1 %150, label %151, label %183

151:                                              ; preds = %146
  %152 = load ptr, ptr %3, align 8, !tbaa !14
  %153 = getelementptr inbounds nuw %struct.H5R_ref_priv_t, ptr %152, i32 0, i32 0
  %154 = getelementptr inbounds nuw %struct.H5R_ref_priv_obj_t, ptr %153, i32 0, i32 1
  %155 = load ptr, ptr %154, align 8, !tbaa !18
  %156 = call noalias ptr @strdup(ptr noundef %155) #9
  %157 = load ptr, ptr %4, align 8, !tbaa !14
  %158 = getelementptr inbounds nuw %struct.H5R_ref_priv_t, ptr %157, i32 0, i32 0
  %159 = getelementptr inbounds nuw %struct.H5R_ref_priv_obj_t, ptr %158, i32 0, i32 1
  store ptr %156, ptr %159, align 8, !tbaa !18
  %160 = icmp eq ptr null, %156
  br i1 %160, label %161, label %180

161:                                              ; preds = %151
  br label %162

162:                                              ; preds = %161
  br label %163

163:                                              ; preds = %162
  br label %164

164:                                              ; preds = %163
  %165 = load i64, ptr @H5E_REFERENCE_g, align 8, !tbaa !12
  %166 = load i64, ptr @H5E_CANTCOPY_g, align 8, !tbaa !12
  %167 = call i32 (ptr, ptr, i32, i64, i64, ptr, ...) @H5E_printf_stack(ptr noundef @.str, ptr noundef @__func__.H5R__copy, i32 noundef 663, i64 noundef %165, i64 noundef %166, ptr noundef @.str.23)
  br label %168

168:                                              ; preds = %164
  br label %169

169:                                              ; preds = %168
  store i8 1, ptr %6, align 1, !tbaa !3
  %170 = load i8, ptr %6, align 1, !tbaa !3, !range !7, !noundef !8
  %171 = trunc i8 %170 to i1
  %172 = zext i1 %171 to i8
  store i8 %172, ptr %6, align 1, !tbaa !3
  br label %173

173:                                              ; preds = %169
  br label %174

174:                                              ; preds = %173
  br label %175

175:                                              ; preds = %174
  store i32 -1, ptr %5, align 4, !tbaa !16
  br label %220

176:                                              ; No predecessors!
  br label %177

177:                                              ; preds = %176
  br label %178

178:                                              ; preds = %177
  br label %179

179:                                              ; preds = %178
  br label %180

180:                                              ; preds = %179, %151
  %181 = load ptr, ptr %4, align 8, !tbaa !14
  %182 = getelementptr inbounds nuw %struct.H5R_ref_priv_t, ptr %181, i32 0, i32 1
  store i64 -1, ptr %182, align 8, !tbaa !19
  br label %219

183:                                              ; preds = %146
  %184 = load ptr, ptr %4, align 8, !tbaa !14
  %185 = getelementptr inbounds nuw %struct.H5R_ref_priv_t, ptr %184, i32 0, i32 0
  %186 = getelementptr inbounds nuw %struct.H5R_ref_priv_obj_t, ptr %185, i32 0, i32 1
  store ptr null, ptr %186, align 8, !tbaa !18
  %187 = load ptr, ptr %3, align 8, !tbaa !14
  %188 = getelementptr inbounds nuw %struct.H5R_ref_priv_t, ptr %187, i32 0, i32 1
  %189 = load i64, ptr %188, align 8, !tbaa !19
  %190 = load ptr, ptr %4, align 8, !tbaa !14
  %191 = getelementptr inbounds nuw %struct.H5R_ref_priv_t, ptr %190, i32 0, i32 1
  store i64 %189, ptr %191, align 8, !tbaa !19
  %192 = load ptr, ptr %4, align 8, !tbaa !14
  %193 = getelementptr inbounds nuw %struct.H5R_ref_priv_t, ptr %192, i32 0, i32 1
  %194 = load i64, ptr %193, align 8, !tbaa !19
  %195 = call i32 @H5I_inc_ref(i64 noundef %194, i1 noundef zeroext true)
  %196 = icmp slt i32 %195, 0
  br i1 %196, label %197, label %216

197:                                              ; preds = %183
  br label %198

198:                                              ; preds = %197
  br label %199

199:                                              ; preds = %198
  br label %200

200:                                              ; preds = %199
  %201 = load i64, ptr @H5E_REFERENCE_g, align 8, !tbaa !12
  %202 = load i64, ptr @H5E_CANTINC_g, align 8, !tbaa !12
  %203 = call i32 (ptr, ptr, i32, i64, i64, ptr, ...) @H5E_printf_stack(ptr noundef @.str, ptr noundef @__func__.H5R__copy, i32 noundef 672, i64 noundef %201, i64 noundef %202, ptr noundef @.str.10)
  br label %204

204:                                              ; preds = %200
  br label %205

205:                                              ; preds = %204
  store i8 1, ptr %6, align 1, !tbaa !3
  %206 = load i8, ptr %6, align 1, !tbaa !3, !range !7, !noundef !8
  %207 = trunc i8 %206 to i1
  %208 = zext i1 %207 to i8
  store i8 %208, ptr %6, align 1, !tbaa !3
  br label %209

209:                                              ; preds = %205
  br label %210

210:                                              ; preds = %209
  br label %211

211:                                              ; preds = %210
  store i32 -1, ptr %5, align 4, !tbaa !16
  br label %220

212:                                              ; No predecessors!
  br label %213

213:                                              ; preds = %212
  br label %214

214:                                              ; preds = %213
  br label %215

215:                                              ; preds = %214
  br label %216

216:                                              ; preds = %215, %183
  %217 = load ptr, ptr %4, align 8, !tbaa !14
  %218 = getelementptr inbounds nuw %struct.H5R_ref_priv_t, ptr %217, i32 0, i32 5
  store i8 1, ptr %218, align 2, !tbaa !30
  br label %219

219:                                              ; preds = %216, %180
  br label %220

220:                                              ; preds = %219, %211, %175, %141, %121, %101, %71
  br label %221

221:                                              ; preds = %220, %13
  %222 = load i32, ptr %5, align 4, !tbaa !16
  call void @llvm.lifetime.end.p0(i64 1, ptr %6) #9
  call void @llvm.lifetime.end.p0(i64 4, ptr %5) #9
  ret i32 %222
}