; Function Attrs: nounwind uwtable
define range(i32 -1, 1) i32 @H5R__copy(ptr noundef readonly captures(none) %0, ptr noundef writeonly captures(none) %1) local_unnamed_addr #1 {
  %3 = load i8, ptr @H5R_init_g, align 1, !tbaa !3, !range !7, !noundef !8
  %4 = trunc nuw i8 %3 to i1
  %5 = load i8, ptr @H5_libterm_g, align 1, !range !7
  %6 = trunc nuw i8 %5 to i1
  %7 = xor i1 %6, true
  %8 = select i1 %4, i1 true, i1 %7
  br i1 %8, label %9, label %75, !prof !9

9:                                                ; preds = %2
  tail call void @llvm.memcpy.p0.p0.i64(ptr noundef nonnull align 8 dereferenceable(16) %1, ptr noundef nonnull align 8 dereferenceable(16) %0, i64 16, i1 false)
  %10 = getelementptr inbounds nuw i8, ptr %0, i64 40
  %11 = load i32, ptr %10, align 8, !tbaa !18
  %12 = getelementptr inbounds nuw i8, ptr %1, i64 40
  store i32 %11, ptr %12, align 8, !tbaa !18
  %13 = getelementptr inbounds nuw i8, ptr %0, i64 44
  %14 = load i8, ptr %13, align 4, !tbaa !15
  %15 = getelementptr inbounds nuw i8, ptr %1, i64 44
  store i8 %14, ptr %15, align 4, !tbaa !15
  %16 = getelementptr inbounds nuw i8, ptr %0, i64 45
  %17 = load i8, ptr %16, align 1, !tbaa !16
  %18 = getelementptr inbounds nuw i8, ptr %1, i64 45
  store i8 %17, ptr %18, align 1, !tbaa !16
  switch i8 %14, label %43 [
    i8 2, label %47
    i8 3, label %19
    i8 4, label %29
    i8 0, label %39
    i8 1, label %39
  ]

19:                                               ; preds = %9
  %20 = getelementptr inbounds nuw i8, ptr %0, i64 24
  %21 = load ptr, ptr %20, align 8, !tbaa !10
  %22 = tail call ptr @H5S_copy(ptr noundef %21, i1 noundef zeroext false, i1 noundef zeroext true) #15
  %23 = getelementptr inbounds nuw i8, ptr %1, i64 24
  store ptr %22, ptr %23, align 8, !tbaa !10
  %24 = icmp eq ptr %22, null
  br i1 %24, label %25, label %47

25:                                               ; preds = %19
  %26 = load i64, ptr @H5E_REFERENCE_g, align 8, !tbaa !17
  %27 = load i64, ptr @H5E_CANTCOPY_g, align 8, !tbaa !17
  %28 = tail call i32 (ptr, ptr, i32, i64, i64, ptr, ...) @H5E_printf_stack(ptr noundef nonnull @.str, ptr noundef nonnull @__func__.H5R__copy, i32 noundef 641, i64 noundef %26, i64 noundef %27, ptr noundef nonnull @.str.3) #15
  br label %75

29:                                               ; preds = %9
  %30 = getelementptr inbounds nuw i8, ptr %0, i64 24
  %31 = load ptr, ptr %30, align 8, !tbaa !10
  %32 = tail call noalias ptr @strdup(ptr noundef %31) #15
  %33 = getelementptr inbounds nuw i8, ptr %1, i64 24
  store ptr %32, ptr %33, align 8, !tbaa !10
  %34 = icmp eq ptr %32, null
  br i1 %34, label %35, label %47

35:                                               ; preds = %29
  %36 = load i64, ptr @H5E_REFERENCE_g, align 8, !tbaa !17
  %37 = load i64, ptr @H5E_CANTCOPY_g, align 8, !tbaa !17
  %38 = tail call i32 (ptr, ptr, i32, i64, i64, ptr, ...) @H5E_printf_stack(ptr noundef nonnull @.str, ptr noundef nonnull @__func__.H5R__copy, i32 noundef 645, i64 noundef %36, i64 noundef %37, ptr noundef nonnull @.str.5) #15
  br label %75

39:                                               ; preds = %9, %9
  %40 = load i64, ptr @H5E_REFERENCE_g, align 8, !tbaa !17
  %41 = load i64, ptr @H5E_UNSUPPORTED_g, align 8, !tbaa !17
  %42 = tail call i32 (ptr, ptr, i32, i64, i64, ptr, ...) @H5E_printf_stack(ptr noundef nonnull @.str, ptr noundef nonnull @__func__.H5R__copy, i32 noundef 650, i64 noundef %40, i64 noundef %41, ptr noundef nonnull @.str.7) #15
  br label %75

43:                                               ; preds = %9
  %44 = load i64, ptr @H5E_REFERENCE_g, align 8, !tbaa !17
  %45 = load i64, ptr @H5E_UNSUPPORTED_g, align 8, !tbaa !17
  %46 = tail call i32 (ptr, ptr, i32, i64, i64, ptr, ...) @H5E_printf_stack(ptr noundef nonnull @.str, ptr noundef nonnull @__func__.H5R__copy, i32 noundef 655, i64 noundef %44, i64 noundef %45, ptr noundef nonnull @.str.8) #15
  br label %75

47:                                               ; preds = %29, %19, %9
  %48 = getelementptr inbounds nuw i8, ptr %0, i64 32
  %49 = load i64, ptr %48, align 8, !tbaa !11
  %50 = icmp eq i64 %49, -1
  br i1 %50, label %51, label %63

51:                                               ; preds = %47
  %52 = getelementptr inbounds nuw i8, ptr %0, i64 16
  %53 = load ptr, ptr %52, align 8, !tbaa !10
  %54 = tail call noalias ptr @strdup(ptr noundef %53) #15
  %55 = getelementptr inbounds nuw i8, ptr %1, i64 16
  store ptr %54, ptr %55, align 8, !tbaa !10
  %56 = icmp eq ptr %54, null
  br i1 %56, label %57, label %61

57:                                               ; preds = %51
  %58 = load i64, ptr @H5E_REFERENCE_g, align 8, !tbaa !17
  %59 = load i64, ptr @H5E_CANTCOPY_g, align 8, !tbaa !17
  %60 = tail call i32 (ptr, ptr, i32, i64, i64, ptr, ...) @H5E_printf_stack(ptr noundef nonnull @.str, ptr noundef nonnull @__func__.H5R__copy, i32 noundef 663, i64 noundef %58, i64 noundef %59, ptr noundef nonnull @.str.23) #15
  br label %75

61:                                               ; preds = %51
  %62 = getelementptr inbounds nuw i8, ptr %1, i64 32
  store i64 -1, ptr %62, align 8, !tbaa !11
  br label %75

63:                                               ; preds = %47
  %64 = getelementptr inbounds nuw i8, ptr %1, i64 16
  store ptr null, ptr %64, align 8, !tbaa !10
  %65 = load i64, ptr %48, align 8, !tbaa !11
  %66 = getelementptr inbounds nuw i8, ptr %1, i64 32
  store i64 %65, ptr %66, align 8, !tbaa !11
  %67 = tail call i32 @H5I_inc_ref(i64 noundef %65, i1 noundef zeroext true) #15
  %68 = icmp slt i32 %67, 0
  br i1 %68, label %69, label %73

69:                                               ; preds = %63
  %70 = load i64, ptr @H5E_REFERENCE_g, align 8, !tbaa !17
  %71 = load i64, ptr @H5E_CANTINC_g, align 8, !tbaa !17
  %72 = tail call i32 (ptr, ptr, i32, i64, i64, ptr, ...) @H5E_printf_stack(ptr noundef nonnull @.str, ptr noundef nonnull @__func__.H5R__copy, i32 noundef 672, i64 noundef %70, i64 noundef %71, ptr noundef nonnull @.str.10) #15
  br label %75

73:                                               ; preds = %63
  %74 = getelementptr inbounds nuw i8, ptr %1, i64 46
  store i8 1, ptr %74, align 2, !tbaa !22
  br label %75

75:                                               ; preds = %25, %35, %39, %43, %57, %69, %73, %61, %2
  %.0 = phi i32 [ -1, %43 ], [ -1, %39 ], [ -1, %35 ], [ -1, %57 ], [ 0, %61 ], [ -1, %69 ], [ 0, %73 ], [ -1, %25 ], [ 0, %2 ]
  ret i32 %.0
}